target datalayout = "e-m:e-p270:32:32-p271:32:32-p272:64:64-i64:64-i128:128-f80:128-n8:16:32:64-S128"
target triple = "x86_64-pc-linux-gnu"

%struct.ident_t = type { i32, i32, i32, i32, ptr }
%class.anon.135 = type { ptr, ptr, ptr }

@1 = private unnamed_addr constant %struct.ident_t { i32 0, i32 514, i32 0, i32 22, ptr @0 }, align 8

; Function Attrs: inlinehint mustprogress nounwind ssp uwtable
define linkonce_odr hidden void @_ZN6open3d4core6linalg6kernel9cross_3x1IfEEvPKT_S6_PS4_(ptr noundef %0, ptr noundef %1, ptr noundef %2) #6 comdat {
  %4 = alloca ptr, align 8
  %5 = alloca ptr, align 8
  %6 = alloca ptr, align 8
  store ptr %0, ptr %4, align 8, !tbaa !172
  store ptr %1, ptr %5, align 8, !tbaa !172
  store ptr %2, ptr %6, align 8, !tbaa !172
  %7 = load ptr, ptr %4, align 8, !tbaa !172
  %8 = getelementptr inbounds float, ptr %7, i64 1
  %9 = load float, ptr %8, align 4, !tbaa !68
  %10 = load ptr, ptr %5, align 8, !tbaa !172
  %11 = getelementptr inbounds float, ptr %10, i64 2
  %12 = load float, ptr %11, align 4, !tbaa !68
  %13 = load ptr, ptr %4, align 8, !tbaa !172
  %14 = getelementptr inbounds float, ptr %13, i64 2
  %15 = load float, ptr %14, align 4, !tbaa !68
  %16 = load ptr, ptr %5, align 8, !tbaa !172
  %17 = getelementptr inbounds float, ptr %16, i64 1
  %18 = load float, ptr %17, align 4, !tbaa !68
  %19 = fmul float %15, %18
  %20 = fneg float %19
  %21 = call float @llvm.fmuladd.f32(float %9, float %12, float %20)
  %22 = load ptr, ptr %6, align 8, !tbaa !172
  %23 = getelementptr inbounds float, ptr %22, i64 0
  store float %21, ptr %23, align 4, !tbaa !68
  %24 = load ptr, ptr %4, align 8, !tbaa !172
  %25 = getelementptr inbounds float, ptr %24, i64 2
  %26 = load float, ptr %25, align 4, !tbaa !68
  %27 = load ptr, ptr %5, align 8, !tbaa !172
  %28 = getelementptr inbounds float, ptr %27, i64 0
  %29 = load float, ptr %28, align 4, !tbaa !68
  %30 = load ptr, ptr %4, align 8, !tbaa !172
  %31 = getelementptr inbounds float, ptr %30, i64 0
  %32 = load float, ptr %31, align 4, !tbaa !68
  %33 = load ptr, ptr %5, align 8, !tbaa !172
  %34 = getelementptr inbounds float, ptr %33, i64 2
  %35 = load float, ptr %34, align 4, !tbaa !68
  %36 = fmul float %32, %35
  %37 = fneg float %36
  %38 = call float @llvm.fmuladd.f32(float %26, float %29, float %37)
  %39 = load ptr, ptr %6, align 8, !tbaa !172
  %40 = getelementptr inbounds float, ptr %39, i64 1
  store float %38, ptr %40, align 4, !tbaa !68
  %41 = load ptr, ptr %4, align 8, !tbaa !172
  %42 = getelementptr inbounds float, ptr %41, i64 0
  %43 = load float, ptr %42, align 4, !tbaa !68
  %44 = load ptr, ptr %5, align 8, !tbaa !172
  %45 = getelementptr inbounds float, ptr %44, i64 1
  %46 = load float, ptr %45, align 4, !tbaa !68
  %47 = load ptr, ptr %4, align 8, !tbaa !172
  %48 = getelementptr inbounds float, ptr %47, i64 1
  %49 = load float, ptr %48, align 4, !tbaa !68
  %50 = load ptr, ptr %5, align 8, !tbaa !172
  %51 = getelementptr inbounds float, ptr %50, i64 0
  %52 = load float, ptr %51, align 4, !tbaa !68
  %53 = fmul float %49, %52
  %54 = fneg float %53
  %55 = call float @llvm.fmuladd.f32(float %43, float %46, float %54)
  %56 = load ptr, ptr %6, align 8, !tbaa !172
  %57 = getelementptr inbounds float, ptr %56, i64 2
  store float %55, ptr %57, align 4, !tbaa !68
  ret void
}

; Function Attrs: noinline noreturn nounwind ssp uwtable
define linkonce_odr hidden void @__clang_call_terminate(ptr noundef %0) #14 comdat {
  %2 = call ptr @__cxa_begin_catch(ptr %0) #7
  call void @_ZSt9terminatev() #32
  unreachable
}

; Function Attrs: inlinehint mustprogress ssp uwtable
define internal void @"_ZZZZN6open3d1t8geometry6kernel12trianglemesh25ComputeTriangleNormalsCPUERKNS_4core6TensorES7_RS5_ENK3$_0clEvENKUlvE_clEvENKUllE_clEl"(ptr noundef nonnull align 8 dereferenceable(24) %0, i64 noundef %1) #16 align 2 {
  %3 = alloca ptr, align 8
  %4 = alloca i64, align 8
  %5 = alloca i64, align 8
  %6 = alloca i64, align 8
  %7 = alloca i64, align 8
  %8 = alloca i64, align 8
  %9 = alloca [3 x float], align 4
  %10 = alloca [3 x float], align 4
  store ptr %0, ptr %3, align 8, !tbaa !86
  store i64 %1, ptr %4, align 8, !tbaa !30
  %11 = load ptr, ptr %3, align 8
  call void @llvm.lifetime.start.p0(i64 8, ptr %5) #7
  %12 = load i64, ptr %4, align 8, !tbaa !30
  %13 = mul nsw i64 3, %12
  store i64 %13, ptr %5, align 8, !tbaa !30
  call void @llvm.lifetime.start.p0(i64 8, ptr %6) #7
  %14 = getelementptr inbounds nuw %class.anon.135, ptr %11, i32 0, i32 0
  %15 = load ptr, ptr %14, align 8, !tbaa !912
  %16 = load i64, ptr %5, align 8, !tbaa !30
  %17 = getelementptr inbounds i64, ptr %15, i64 %16
  %18 = load i64, ptr %17, align 8, !tbaa !30
  store i64 %18, ptr %6, align 8, !tbaa !30
  call void @llvm.lifetime.start.p0(i64 8, ptr %7) #7
  %19 = getelementptr inbounds nuw %class.anon.135, ptr %11, i32 0, i32 0
  %20 = load ptr, ptr %19, align 8, !tbaa !912
  %21 = load i64, ptr %5, align 8, !tbaa !30
  %22 = add nsw i64 %21, 1
  %23 = getelementptr inbounds i64, ptr %20, i64 %22
  %24 = load i64, ptr %23, align 8, !tbaa !30
  store i64 %24, ptr %7, align 8, !tbaa !30
  call void @llvm.lifetime.start.p0(i64 8, ptr %8) #7
  %25 = getelementptr inbounds nuw %class.anon.135, ptr %11, i32 0, i32 0
  %26 = load ptr, ptr %25, align 8, !tbaa !912
  %27 = load i64, ptr %5, align 8, !tbaa !30
  %28 = add nsw i64 %27, 2
  %29 = getelementptr inbounds i64, ptr %26, i64 %28
  %30 = load i64, ptr %29, align 8, !tbaa !30
  store i64 %30, ptr %8, align 8, !tbaa !30
  call void @llvm.lifetime.start.p0(i64 12, ptr %9) #7
  call void @llvm.lifetime.start.p0(i64 12, ptr %10) #7
  %31 = getelementptr inbounds nuw %class.anon.135, ptr %11, i32 0, i32 1
  %32 = load ptr, ptr %31, align 8, !tbaa !914
  %33 = load i64, ptr %7, align 8, !tbaa !30
  %34 = mul nsw i64 3, %33
  %35 = getelementptr inbounds float, ptr %32, i64 %34
  %36 = load float, ptr %35, align 4, !tbaa !68
  %37 = getelementptr inbounds nuw %class.anon.135, ptr %11, i32 0, i32 1
  %38 = load ptr, ptr %37, align 8, !tbaa !914
  %39 = load i64, ptr %6, align 8, !tbaa !30
  %40 = mul nsw i64 3, %39
  %41 = getelementptr inbounds float, ptr %38, i64 %40
  %42 = load float, ptr %41, align 4, !tbaa !68
  %43 = fsub float %36, %42
  %44 = getelementptr inbounds [3 x float], ptr %9, i64 0, i64 0
  store float %43, ptr %44, align 4, !tbaa !68
  %45 = getelementptr inbounds nuw %class.anon.135, ptr %11, i32 0, i32 1
  %46 = load ptr, ptr %45, align 8, !tbaa !914
  %47 = load i64, ptr %7, align 8, !tbaa !30
  %48 = mul nsw i64 3, %47
  %49 = add nsw i64 %48, 1
  %50 = getelementptr inbounds float, ptr %46, i64 %49
  %51 = load float, ptr %50, align 4, !tbaa !68
  %52 = getelementptr inbounds nuw %class.anon.135, ptr %11, i32 0, i32 1
  %53 = load ptr, ptr %52, align 8, !tbaa !914
  %54 = load i64, ptr %6, align 8, !tbaa !30
  %55 = mul nsw i64 3, %54
  %56 = add nsw i64 %55, 1
  %57 = getelementptr inbounds float, ptr %53, i64 %56
  %58 = load float, ptr %57, align 4, !tbaa !68
  %59 = fsub float %51, %58
  %60 = getelementptr inbounds [3 x float], ptr %9, i64 0, i64 1
  store float %59, ptr %60, align 4, !tbaa !68
  %61 = getelementptr inbounds nuw %class.anon.135, ptr %11, i32 0, i32 1
  %62 = load ptr, ptr %61, align 8, !tbaa !914
  %63 = load i64, ptr %7, align 8, !tbaa !30
  %64 = mul nsw i64 3, %63
  %65 = add nsw i64 %64, 2
  %66 = getelementptr inbounds float, ptr %62, i64 %65
  %67 = load float, ptr %66, align 4, !tbaa !68
  %68 = getelementptr inbounds nuw %class.anon.135, ptr %11, i32 0, i32 1
  %69 = load ptr, ptr %68, align 8, !tbaa !914
  %70 = load i64, ptr %6, align 8, !tbaa !30
  %71 = mul nsw i64 3, %70
  %72 = add nsw i64 %71, 2
  %73 = getelementptr inbounds float, ptr %69, i64 %72
  %74 = load float, ptr %73, align 4, !tbaa !68
  %75 = fsub float %67, %74
  %76 = getelementptr inbounds [3 x float], ptr %9, i64 0, i64 2
  store float %75, ptr %76, align 4, !tbaa !68
  %77 = getelementptr inbounds nuw %class.anon.135, ptr %11, i32 0, i32 1
  %78 = load ptr, ptr %77, align 8, !tbaa !914
  %79 = load i64, ptr %8, align 8, !tbaa !30
  %80 = mul nsw i64 3, %79
  %81 = getelementptr inbounds float, ptr %78, i64 %80
  %82 = load float, ptr %81, align 4, !tbaa !68
  %83 = getelementptr inbounds nuw %class.anon.135, ptr %11, i32 0, i32 1
  %84 = load ptr, ptr %83, align 8, !tbaa !914
  %85 = load i64, ptr %6, align 8, !tbaa !30
  %86 = mul nsw i64 3, %85
  %87 = getelementptr inbounds float, ptr %84, i64 %86
  %88 = load float, ptr %87, align 4, !tbaa !68
  %89 = fsub float %82, %88
  %90 = getelementptr inbounds [3 x float], ptr %10, i64 0, i64 0
  store float %89, ptr %90, align 4, !tbaa !68
  %91 = getelementptr inbounds nuw %class.anon.135, ptr %11, i32 0, i32 1
  %92 = load ptr, ptr %91, align 8, !tbaa !914
  %93 = load i64, ptr %8, align 8, !tbaa !30
  %94 = mul nsw i64 3, %93
  %95 = add nsw i64 %94, 1
  %96 = getelementptr inbounds float, ptr %92, i64 %95
  %97 = load float, ptr %96, align 4, !tbaa !68
  %98 = getelementptr inbounds nuw %class.anon.135, ptr %11, i32 0, i32 1
  %99 = load ptr, ptr %98, align 8, !tbaa !914
  %100 = load i64, ptr %6, align 8, !tbaa !30
  %101 = mul nsw i64 3, %100
  %102 = add nsw i64 %101, 1
  %103 = getelementptr inbounds float, ptr %99, i64 %102
  %104 = load float, ptr %103, align 4, !tbaa !68
  %105 = fsub float %97, %104
  %106 = getelementptr inbounds [3 x float], ptr %10, i64 0, i64 1
  store float %105, ptr %106, align 4, !tbaa !68
  %107 = getelementptr inbounds nuw %class.anon.135, ptr %11, i32 0, i32 1
  %108 = load ptr, ptr %107, align 8, !tbaa !914
  %109 = load i64, ptr %8, align 8, !tbaa !30
  %110 = mul nsw i64 3, %109
  %111 = add nsw i64 %110, 2
  %112 = getelementptr inbounds float, ptr %108, i64 %111
  %113 = load float, ptr %112, align 4, !tbaa !68
  %114 = getelementptr inbounds nuw %class.anon.135, ptr %11, i32 0, i32 1
  %115 = load ptr, ptr %114, align 8, !tbaa !914
  %116 = load i64, ptr %6, align 8, !tbaa !30
  %117 = mul nsw i64 3, %116
  %118 = add nsw i64 %117, 2
  %119 = getelementptr inbounds float, ptr %115, i64 %118
  %120 = load float, ptr %119, align 4, !tbaa !68
  %121 = fsub float %113, %120
  %122 = getelementptr inbounds [3 x float], ptr %10, i64 0, i64 2
  store float %121, ptr %122, align 4, !tbaa !68
  %123 = getelementptr inbounds [3 x float], ptr %9, i64 0, i64 0
  %124 = getelementptr inbounds [3 x float], ptr %10, i64 0, i64 0
  %125 = getelementptr inbounds nuw %class.anon.135, ptr %11, i32 0, i32 2
  %126 = load ptr, ptr %125, align 8, !tbaa !915
  %127 = load i64, ptr %5, align 8, !tbaa !30
  %128 = getelementptr inbounds float, ptr %126, i64 %127
  call void @_ZN6open3d4core6linalg6kernel9cross_3x1IfEEvPKT_S6_PS4_(ptr noundef %123, ptr noundef %124, ptr noundef %128)
  call void @llvm.lifetime.end.p0(i64 12, ptr %10) #7
  call void @llvm.lifetime.end.p0(i64 12, ptr %9) #7
  call void @llvm.lifetime.end.p0(i64 8, ptr %8) #7
  call void @llvm.lifetime.end.p0(i64 8, ptr %7) #7
  call void @llvm.lifetime.end.p0(i64 8, ptr %6) #7
  call void @llvm.lifetime.end.p0(i64 8, ptr %5) #7
  ret void
}

; Function Attrs: alwaysinline norecurse nounwind ssp uwtable
define internal void @"_ZN6open3d4core15ParallelForCPU_IZZZNS_1t8geometry6kernel12trianglemesh25ComputeTriangleNormalsCPUERKNS0_6TensorES8_RS6_ENK3$_0clEvENKUlvE_clEvEUllE_EEvRKNS0_6DeviceElRKT_.omp_outlined"(ptr noalias noundef %0, ptr noalias noundef %1, ptr noundef nonnull align 8 dereferenceable(8) %2, ptr noundef nonnull align 8 dereferenceable(24) %3) #26 personality ptr @__gxx_personality_v0 {
  %5 = alloca ptr, align 8
  %6 = alloca ptr, align 8
  %7 = alloca ptr, align 8
  %8 = alloca ptr, align 8
  %9 = alloca ptr, align 8
  %10 = alloca i64, align 8
  %11 = alloca i64, align 8
  %12 = alloca i64, align 8
  %13 = alloca i64, align 8
  %14 = alloca i64, align 8
  %15 = alloca i64, align 8
  %16 = alloca i64, align 8
  %17 = alloca i32, align 4
  %18 = alloca i64, align 8
  store ptr %0, ptr %5, align 8, !tbaa !93
  store ptr %1, ptr %6, align 8, !tbaa !93
  store ptr %2, ptr %7, align 8, !tbaa !126
  store ptr %3, ptr %8, align 8, !tbaa !86
  %19 = load ptr, ptr %7, align 8, !tbaa !126
  %20 = load ptr, ptr %8, align 8, !tbaa !86
  store ptr %20, ptr %9, align 8
  call void @llvm.lifetime.start.p0(i64 8, ptr %10) #7
  call void @llvm.lifetime.start.p0(i64 8, ptr %11) #7
  %21 = load i64, ptr %19, align 8, !tbaa !30
  store i64 %21, ptr %11, align 8, !tbaa !30
  call void @llvm.lifetime.start.p0(i64 8, ptr %12) #7
  %22 = load i64, ptr %11, align 8, !tbaa !30
  %23 = sub nsw i64 %22, 0
  %24 = sdiv i64 %23, 1
  %25 = sub nsw i64 %24, 1
  store i64 %25, ptr %12, align 8, !tbaa !30
  call void @llvm.lifetime.start.p0(i64 8, ptr %13) #7
  store i64 0, ptr %13, align 8, !tbaa !30
  call void @llvm.lifetime.end.p0(i64 8, ptr %13) #7
  %26 = load i64, ptr %11, align 8, !tbaa !30
  %27 = icmp slt i64 0, %26
  br i1 %27, label %28, label %62

28:                                               ; preds = %4
  call void @llvm.lifetime.start.p0(i64 8, ptr %14) #7
  store i64 0, ptr %14, align 8, !tbaa !30
  call void @llvm.lifetime.start.p0(i64 8, ptr %15) #7
  %29 = load i64, ptr %12, align 8, !tbaa !30
  store i64 %29, ptr %15, align 8, !tbaa !30
  call void @llvm.lifetime.start.p0(i64 8, ptr %16) #7
  store i64 1, ptr %16, align 8, !tbaa !30
  call void @llvm.lifetime.start.p0(i64 4, ptr %17) #7
  store i32 0, ptr %17, align 4, !tbaa !121
  call void @llvm.lifetime.start.p0(i64 8, ptr %18) #7
  %30 = load ptr, ptr %5, align 8
  %31 = load i32, ptr %30, align 4, !tbaa !121
  call void @__kmpc_for_static_init_8(ptr @1, i32 %31, i32 34, ptr %17, ptr %14, ptr %15, ptr %16, i64 1, i64 1)
  %32 = load i64, ptr %15, align 8, !tbaa !30
  %33 = load i64, ptr %12, align 8, !tbaa !30
  %34 = icmp sgt i64 %32, %33
  br i1 %34, label %35, label %37

35:                                               ; preds = %28
  %36 = load i64, ptr %12, align 8, !tbaa !30
  br label %39

37:                                               ; preds = %28
  %38 = load i64, ptr %15, align 8, !tbaa !30
  br label %39

39:                                               ; preds = %37, %35
  %40 = phi i64 [ %36, %35 ], [ %38, %37 ]
  store i64 %40, ptr %15, align 8, !tbaa !30
  %41 = load i64, ptr %14, align 8, !tbaa !30
  store i64 %41, ptr %10, align 8, !tbaa !30
  br label %42

42:                                               ; preds = %55, %39
  %43 = load i64, ptr %10, align 8, !tbaa !30
  %44 = load i64, ptr %15, align 8, !tbaa !30
  %45 = icmp sle i64 %43, %44
  br i1 %45, label %47, label %46

46:                                               ; preds = %42
  br label %58

47:                                               ; preds = %42
  %48 = load i64, ptr %10, align 8, !tbaa !30
  %49 = mul nsw i64 %48, 1
  %50 = add nsw i64 0, %49
  store i64 %50, ptr %18, align 8, !tbaa !30
  %51 = load ptr, ptr %9, align 8, !tbaa !86
  %52 = load i64, ptr %18, align 8, !tbaa !30
  invoke void @"_ZZZZN6open3d1t8geometry6kernel12trianglemesh25ComputeTriangleNormalsCPUERKNS_4core6TensorES7_RS5_ENK3$_0clEvENKUlvE_clEvENKUllE_clEl"(ptr noundef nonnull align 8 dereferenceable(24) %51, i64 noundef %52)
          to label %53 unwind label %63

53:                                               ; preds = %47
  br label %54

54:                                               ; preds = %53
  br label %55

55:                                               ; preds = %54
  %56 = load i64, ptr %10, align 8, !tbaa !30
  %57 = add nsw i64 %56, 1
  store i64 %57, ptr %10, align 8, !tbaa !30
  br label %42

58:                                               ; preds = %46
  br label %59

59:                                               ; preds = %58
  %60 = load ptr, ptr %5, align 8
  %61 = load i32, ptr %60, align 4, !tbaa !121
  call void @__kmpc_for_static_fini(ptr @1, i32 %61)
  call void @llvm.lifetime.end.p0(i64 8, ptr %18) #7
  call void @llvm.lifetime.end.p0(i64 4, ptr %17) #7
  call void @llvm.lifetime.end.p0(i64 8, ptr %16) #7
  call void @llvm.lifetime.end.p0(i64 8, ptr %15) #7
  call void @llvm.lifetime.end.p0(i64 8, ptr %14) #7
  br label %62

62:                                               ; preds = %59, %4
  call void @llvm.lifetime.end.p0(i64 8, ptr %12) #7
  call void @llvm.lifetime.end.p0(i64 8, ptr %11) #7
  call void @llvm.lifetime.end.p0(i64 8, ptr %10) #7
  ret void

63:                                               ; preds = %47
  %64 = landingpad { ptr, i32 }
          catch ptr null
  %65 = extractvalue { ptr, i32 } %64, 0
  call void @__clang_call_terminate(ptr %65) #32
  unreachable
}